; Function Attrs: nounwind uwtable
define dso_local i64 @int2vectorout(ptr noundef readonly captures(none) %0) local_unnamed_addr #0 {
  %2 = getelementptr inbounds nuw i8, ptr %0, i64 32
  %3 = load i64, ptr %2, align 8
  %4 = inttoptr i64 %3 to ptr
  %5 = getelementptr inbounds nuw i8, ptr %4, i64 16
  %6 = load i32, ptr %5, align 4
  %7 = mul i32 %6, 7
  %8 = add i32 %7, 1
  %9 = sext i32 %8 to i64
  %10 = tail call ptr @palloc(i64 noundef %9) #13
  %11 = icmp sgt i32 %6, 0
  br i1 %11, label %.lr.ph, label %._crit_edge

.lr.ph:                                           ; preds = %1
  %12 = getelementptr inbounds nuw i8, ptr %4, i64 24
  %wide.trip.count = zext nneg i32 %6 to i64
  br label %13

13:                                               ; preds = %.lr.ph, %16
  %indvars.iv = phi i64 [ 0, %.lr.ph ], [ %indvars.iv.next, %16 ]
  %.01314 = phi ptr [ %10, %.lr.ph ], [ %21, %16 ]
  %.not = icmp eq i64 %indvars.iv, 0
  br i1 %.not, label %16, label %14

14:                                               ; preds = %13
  %15 = getelementptr inbounds nuw i8, ptr %.01314, i64 1
  store i8 32, ptr %.01314, align 1
  br label %16

16:                                               ; preds = %14, %13
  %.1 = phi ptr [ %15, %14 ], [ %.01314, %13 ]
  %17 = getelementptr inbounds nuw [0 x i16], ptr %12, i64 0, i64 %indvars.iv
  %18 = load i16, ptr %17, align 2
  %19 = tail call i32 @pg_itoa(i16 noundef signext %18, ptr noundef %.1) #13
  %20 = sext i32 %19 to i64
  %21 = getelementptr inbounds i8, ptr %.1, i64 %20
  %indvars.iv.next = add nuw nsw i64 %indvars.iv, 1
  %exitcond.not = icmp eq i64 %indvars.iv.next, %wide.trip.count
  br i1 %exitcond.not, label %._crit_edge, label %13, !llvm.loop !9

._crit_edge:                                      ; preds = %16, %1
  %.013.lcssa = phi ptr [ %10, %1 ], [ %21, %16 ]
  store i8 0, ptr %.013.lcssa, align 1
  %22 = ptrtoint ptr %10 to i64
  ret i64 %22
}